; Function Attrs: mustprogress uwtable
define noundef ptr @_ZNK12CFrmSettings10metaObjectEv(ptr nocapture noundef nonnull readonly align 8 dereferenceable(152) %0) unnamed_addr #0 align 2 {
  %2 = getelementptr inbounds i8, ptr %0, i64 8
  %3 = load ptr, ptr %2, align 8
  %4 = getelementptr inbounds i8, ptr %3, i64 56
  %5 = load ptr, ptr %4, align 8
  %.not = icmp eq ptr %5, null
  br i1 %.not, label %8, label %6

6:                                                ; preds = %1
  %7 = tail call noundef ptr @_ZNK11QObjectData17dynamicMetaObjectEv(ptr noundef nonnull align 8 dereferenceable(80) %3)
  br label %8

8:                                                ; preds = %1, %6
  %9 = phi ptr [ %7, %6 ], [ @_ZN12CFrmSettings16staticMetaObjectE, %1 ]
  ret ptr %9
}